; Function Attrs: mustprogress uwtable
define void @_ZN3gmx17HelpWriterContext14setReplacementERKNSt7__cxx1112basic_stringIcSt11char_traitsIcESaIcEEES8_(ptr nocapture noundef nonnull readonly align 8 dereferenceable(8) %0, ptr noundef nonnull align 8 dereferenceable(32) %1, ptr noundef nonnull align 8 dereferenceable(32) %2) local_unnamed_addr #0 align 2 personality ptr @__gxx_personality_v0 {
  %4 = load ptr, ptr %0, align 8
  %5 = getelementptr inbounds i8, ptr %4, i64 24
  %6 = load ptr, ptr %5, align 8
  %7 = getelementptr inbounds i8, ptr %4, i64 32
  %8 = load ptr, ptr %7, align 8
  %.not.i.i = icmp eq ptr %6, %8
  br i1 %.not.i.i, label %15, label %9

9:                                                ; preds = %3
  tail call void @_ZNSt7__cxx1112basic_stringIcSt11char_traitsIcESaIcEEC1ERKS4_(ptr noundef nonnull align 8 dereferenceable(32) %6, ptr noundef nonnull align 8 dereferenceable(32) %1)
  %10 = getelementptr inbounds i8, ptr %6, i64 32
  invoke void @_ZNSt7__cxx1112basic_stringIcSt11char_traitsIcESaIcEEC1ERKS4_(ptr noundef nonnull align 8 dereferenceable(32) %10, ptr noundef nonnull align 8 dereferenceable(32) %2)
          to label %_ZNSt16allocator_traitsISaIN3gmx17HelpWriterContext4Impl11ReplaceItemEEE9constructIS3_JRKNSt7__cxx1112basic_stringIcSt11char_traitsIcESaIcEEESE_EEEvRS4_PT_DpOT0_.exit.i.i unwind label %11

11:                                               ; preds = %9
  %12 = landingpad { ptr, i32 }
          cleanup
  tail call void @_ZNSt7__cxx1112basic_stringIcSt11char_traitsIcESaIcEED1Ev(ptr noundef nonnull align 8 dereferenceable(32) %6) #17
  resume { ptr, i32 } %12

_ZNSt16allocator_traitsISaIN3gmx17HelpWriterContext4Impl11ReplaceItemEEE9constructIS3_JRKNSt7__cxx1112basic_stringIcSt11char_traitsIcESaIcEEESE_EEEvRS4_PT_DpOT0_.exit.i.i: ; preds = %9
  %13 = load ptr, ptr %5, align 8
  %14 = getelementptr inbounds i8, ptr %13, i64 64
  store ptr %14, ptr %5, align 8
  br label %_ZN3gmx17HelpWriterContext4Impl14addReplacementERKNSt7__cxx1112basic_stringIcSt11char_traitsIcESaIcEEES9_.exit

15:                                               ; preds = %3
  %16 = getelementptr inbounds i8, ptr %4, i64 16
  tail call void @_ZNSt6vectorIN3gmx17HelpWriterContext4Impl11ReplaceItemESaIS3_EE17_M_realloc_insertIJRKNSt7__cxx1112basic_stringIcSt11char_traitsIcESaIcEEESE_EEEvN9__gnu_cxx17__normal_iteratorIPS3_S5_EEDpOT_(ptr noundef nonnull align 8 dereferenceable(24) %16, ptr %6, ptr noundef nonnull align 8 dereferenceable(32) %1, ptr noundef nonnull align 8 dereferenceable(32) %2)
  br label %_ZN3gmx17HelpWriterContext4Impl14addReplacementERKNSt7__cxx1112basic_stringIcSt11char_traitsIcESaIcEEES9_.exit

_ZN3gmx17HelpWriterContext4Impl14addReplacementERKNSt7__cxx1112basic_stringIcSt11char_traitsIcESaIcEEES9_.exit: ; preds = %_ZNSt16allocator_traitsISaIN3gmx17HelpWriterContext4Impl11ReplaceItemEEE9constructIS3_JRKNSt7__cxx1112basic_stringIcSt11char_traitsIcESaIcEEESE_EEEvRS4_PT_DpOT0_.exit.i.i, %15
  ret void
}